; Function Attrs: nounwind uwtable
define hidden i32 @mbedtls_md_hmac_update(ptr noundef %0, ptr noundef %1, i64 noundef %2) local_unnamed_addr #3 {
  %4 = icmp eq ptr %0, null
  br i1 %4, label %14, label %5

5:                                                ; preds = %3
  %6 = load ptr, ptr %0, align 8, !tbaa !3
  %7 = icmp eq ptr %6, null
  br i1 %7, label %14, label %8

8:                                                ; preds = %5
  %9 = getelementptr inbounds nuw i8, ptr %0, i64 16
  %10 = load ptr, ptr %9, align 8, !tbaa !13
  %11 = icmp eq ptr %10, null
  br i1 %11, label %14, label %12

12:                                               ; preds = %8
  %13 = tail call i32 @mbedtls_md_update(ptr noundef nonnull %0, ptr noundef %1, i64 noundef %2)
  br label %14

14:                                               ; preds = %3, %5, %8, %12
  %.0 = phi i32 [ %13, %12 ], [ -20736, %8 ], [ -20736, %5 ], [ -20736, %3 ]
  ret i32 %.0
}